target datalayout = "e-m:e-p270:32:32-p271:32:32-p272:64:64-i64:64-i128:128-f80:128-n8:16:32:64-S128"
target triple = "x86_64-pc-linux-gnu"

; Function Attrs: nounwind uwtable
define internal void @add_int16_c(ptr noundef %0, ptr noundef %1, i32 noundef %2, i32 noundef %3) #1 {
  %5 = alloca ptr, align 8
  %6 = alloca ptr, align 8
  %7 = alloca i32, align 4
  %8 = alloca i32, align 4
  %9 = alloca i64, align 8
  %10 = alloca i64, align 8
  %11 = alloca i64, align 8
  %12 = alloca i64, align 8
  %13 = alloca i64, align 8
  store ptr %0, ptr %5, align 8, !tbaa !15
  store ptr %1, ptr %6, align 8, !tbaa !15
  store i32 %2, ptr %7, align 4, !tbaa !9
  store i32 %3, ptr %8, align 4, !tbaa !9
  call void @llvm.lifetime.start.p0(i64 8, ptr %9) #4
  call void @llvm.lifetime.start.p0(i64 8, ptr %10) #4
  %14 = load i32, ptr %7, align 4, !tbaa !9
  %15 = lshr i32 %14, 1
  %16 = zext i32 %15 to i64
  %17 = mul i64 %16, 281479271743489
  store i64 %17, ptr %10, align 8, !tbaa !17
  call void @llvm.lifetime.start.p0(i64 8, ptr %11) #4
  %18 = load i64, ptr %10, align 8, !tbaa !17
  %19 = add i64 %18, 281479271743489
  store i64 %19, ptr %11, align 8, !tbaa !17
  store i64 0, ptr %9, align 8, !tbaa !17
  br label %20

20:                                               ; preds = %51, %4
  %21 = load i64, ptr %9, align 8, !tbaa !17
  %22 = load i32, ptr %8, align 4, !tbaa !9
  %23 = sub nsw i32 %22, 4
  %24 = sext i32 %23 to i64
  %25 = icmp sle i64 %21, %24
  br i1 %25, label %26, label %54

26:                                               ; preds = %20
  call void @llvm.lifetime.start.p0(i64 8, ptr %12) #4
  %27 = load ptr, ptr %6, align 8, !tbaa !15
  %28 = load i64, ptr %9, align 8, !tbaa !17
  %29 = getelementptr inbounds i16, ptr %27, i64 %28
  %30 = load i64, ptr %29, align 8, !tbaa !17
  store i64 %30, ptr %12, align 8, !tbaa !17
  call void @llvm.lifetime.start.p0(i64 8, ptr %13) #4
  %31 = load ptr, ptr %5, align 8, !tbaa !15
  %32 = load i64, ptr %9, align 8, !tbaa !17
  %33 = getelementptr inbounds i16, ptr %31, i64 %32
  %34 = load i64, ptr %33, align 8, !tbaa !17
  store i64 %34, ptr %13, align 8, !tbaa !17
  %35 = load i64, ptr %12, align 8, !tbaa !17
  %36 = load i64, ptr %10, align 8, !tbaa !17
  %37 = and i64 %35, %36
  %38 = load i64, ptr %13, align 8, !tbaa !17
  %39 = load i64, ptr %10, align 8, !tbaa !17
  %40 = and i64 %38, %39
  %41 = add i64 %37, %40
  %42 = load i64, ptr %12, align 8, !tbaa !17
  %43 = load i64, ptr %13, align 8, !tbaa !17
  %44 = xor i64 %42, %43
  %45 = load i64, ptr %11, align 8, !tbaa !17
  %46 = and i64 %44, %45
  %47 = xor i64 %41, %46
  %48 = load ptr, ptr %5, align 8, !tbaa !15
  %49 = load i64, ptr %9, align 8, !tbaa !17
  %50 = getelementptr inbounds i16, ptr %48, i64 %49
  store i64 %47, ptr %50, align 8, !tbaa !17
  call void @llvm.lifetime.end.p0(i64 8, ptr %13) #4
  call void @llvm.lifetime.end.p0(i64 8, ptr %12) #4
  br label %51

51:                                               ; preds = %26
  %52 = load i64, ptr %9, align 8, !tbaa !17
  %53 = add i64 %52, 4
  store i64 %53, ptr %9, align 8, !tbaa !17
  br label %20, !llvm.loop !19

54:                                               ; preds = %20
  br label %55

55:                                               ; preds = %78, %54
  %56 = load i64, ptr %9, align 8, !tbaa !17
  %57 = load i32, ptr %8, align 4, !tbaa !9
  %58 = sext i32 %57 to i64
  %59 = icmp slt i64 %56, %58
  br i1 %59, label %60, label %81

60:                                               ; preds = %55
  %61 = load ptr, ptr %5, align 8, !tbaa !15
  %62 = load i64, ptr %9, align 8, !tbaa !17
  %63 = getelementptr inbounds i16, ptr %61, i64 %62
  %64 = load i16, ptr %63, align 2, !tbaa !21
  %65 = zext i16 %64 to i32
  %66 = load ptr, ptr %6, align 8, !tbaa !15
  %67 = load i64, ptr %9, align 8, !tbaa !17
  %68 = getelementptr inbounds i16, ptr %66, i64 %67
  %69 = load i16, ptr %68, align 2, !tbaa !21
  %70 = zext i16 %69 to i32
  %71 = add nsw i32 %65, %70
  %72 = load i32, ptr %7, align 4, !tbaa !9
  %73 = and i32 %71, %72
  %74 = trunc i32 %73 to i16
  %75 = load ptr, ptr %5, align 8, !tbaa !15
  %76 = load i64, ptr %9, align 8, !tbaa !17
  %77 = getelementptr inbounds i16, ptr %75, i64 %76
  store i16 %74, ptr %77, align 2, !tbaa !21
  br label %78

78:                                               ; preds = %60
  %79 = load i64, ptr %9, align 8, !tbaa !17
  %80 = add nsw i64 %79, 1
  store i64 %80, ptr %9, align 8, !tbaa !17
  br label %55, !llvm.loop !23

81:                                               ; preds = %55
  call void @llvm.lifetime.end.p0(i64 8, ptr %11) #4
  call void @llvm.lifetime.end.p0(i64 8, ptr %10) #4
  call void @llvm.lifetime.end.p0(i64 8, ptr %9) #4
  ret void
}