; Function Attrs: nofree norecurse nosync nounwind memory(argmem: readwrite) uwtable
define internal void @add_int16_c(ptr noundef captures(none) %0, ptr noundef readonly captures(none) %1, i32 noundef %2, i32 noundef %3) #1 {
  %5 = lshr i32 %2, 1
  %6 = zext nneg i32 %5 to i64
  %7 = mul i64 %6, 281479271743489
  %8 = add i64 %7, 281479271743489
  %9 = add nsw i32 %3, -4
  %10 = sext i32 %9 to i64
  %.not27 = icmp slt i32 %3, 4
  br i1 %.not27, label %.preheader, label %.lr.ph

.preheader:                                       ; preds = %.lr.ph, %4
  %.0.lcssa = phi i64 [ 0, %4 ], [ %23, %.lr.ph ]
  %11 = sext i32 %3 to i64
  %12 = icmp slt i64 %.0.lcssa, %11
  br i1 %12, label %.lr.ph30, label %._crit_edge

.lr.ph:                                           ; preds = %4, %.lr.ph
  %.028 = phi i64 [ %23, %.lr.ph ], [ 0, %4 ]
  %13 = getelementptr inbounds nuw i16, ptr %1, i64 %.028
  %14 = load i64, ptr %13, align 8, !tbaa !11
  %15 = getelementptr inbounds nuw i16, ptr %0, i64 %.028
  %16 = load i64, ptr %15, align 8, !tbaa !11
  %17 = and i64 %14, %7
  %18 = and i64 %16, %7
  %19 = add i64 %18, %17
  %20 = xor i64 %16, %14
  %21 = and i64 %20, %8
  %22 = xor i64 %19, %21
  store i64 %22, ptr %15, align 8, !tbaa !11
  %23 = add nuw nsw i64 %.028, 4
  %.not = icmp sgt i64 %23, %10
  br i1 %.not, label %.preheader, label %.lr.ph, !llvm.loop !13

.lr.ph30:                                         ; preds = %.preheader, %.lr.ph30
  %.129 = phi i64 [ %33, %.lr.ph30 ], [ %.0.lcssa, %.preheader ]
  %24 = getelementptr inbounds nuw i16, ptr %0, i64 %.129
  %25 = load i16, ptr %24, align 2, !tbaa !15
  %26 = zext i16 %25 to i32
  %27 = getelementptr inbounds nuw i16, ptr %1, i64 %.129
  %28 = load i16, ptr %27, align 2, !tbaa !15
  %29 = zext i16 %28 to i32
  %30 = add nuw nsw i32 %29, %26
  %31 = and i32 %30, %2
  %32 = trunc i32 %31 to i16
  store i16 %32, ptr %24, align 2, !tbaa !15
  %33 = add nuw nsw i64 %.129, 1
  %exitcond.not = icmp eq i64 %33, %11
  br i1 %exitcond.not, label %._crit_edge, label %.lr.ph30, !llvm.loop !17

._crit_edge:                                      ; preds = %.lr.ph30, %.preheader
  ret void
}